; Function Attrs: mustprogress nounwind uwtable
define noundef i64 @_ZN9syscall_t13sys_ftruncateEmmmmmmm(ptr nocapture noundef nonnull readonly align 8 dereferenceable(176) %0, i64 noundef %1, i64 noundef %2, i64 %3, i64 %4, i64 %5, i64 %6, i64 %7) #4 align 2 {
  %9 = and i64 %1, 4294967295
  %10 = icmp eq i64 %9, 4294967196
  br i1 %10, label %_ZN5fds_t6lookupEm.exit, label %11

11:                                               ; preds = %8
  %12 = getelementptr inbounds i8, ptr %0, i64 96
  %13 = getelementptr inbounds i8, ptr %0, i64 104
  %14 = load ptr, ptr %13, align 8
  %15 = load ptr, ptr %12, align 8
  %16 = ptrtoint ptr %14 to i64
  %17 = ptrtoint ptr %15 to i64
  %18 = sub i64 %16, %17
  %19 = ashr exact i64 %18, 2
  %.not.i = icmp ugt i64 %19, %1
  br i1 %.not.i, label %20, label %_ZN5fds_t6lookupEm.exit

20:                                               ; preds = %11
  %21 = getelementptr inbounds i32, ptr %15, i64 %1
  %22 = load i32, ptr %21, align 4
  br label %_ZN5fds_t6lookupEm.exit

_ZN5fds_t6lookupEm.exit:                          ; preds = %8, %11, %20
  %.0.i = phi i32 [ -100, %8 ], [ %22, %20 ], [ -1, %11 ]
  %23 = tail call i32 @ftruncate(i32 noundef %.0.i, i64 noundef %2) #26
  %24 = icmp eq i32 %23, -1
  br i1 %24, label %25, label %_ZL12sysret_errnol.exit

25:                                               ; preds = %_ZN5fds_t6lookupEm.exit
  %26 = tail call ptr @__errno_location() #30
  %27 = load i32, ptr %26, align 4
  %28 = sub nsw i32 0, %27
  br label %_ZL12sysret_errnol.exit

_ZL12sysret_errnol.exit:                          ; preds = %_ZN5fds_t6lookupEm.exit, %25
  %.in = phi i32 [ %28, %25 ], [ %23, %_ZN5fds_t6lookupEm.exit ]
  %29 = sext i32 %.in to i64
  ret i64 %29
}